target datalayout = "e-m:e-p270:32:32-p271:32:32-p272:64:64-i64:64-i128:128-f80:128-n8:16:32:64-S128"
target triple = "x86_64-pc-linux-gnu"

%struct.qtest_fault = type { ptr, %struct.quic_pkt_hdr_st, %struct.ossl_qtx_iovec_st, i64, ptr, ptr, ptr, i64, i64, ptr, ptr, ptr, ptr, ptr, ptr, ptr, ptr, %struct.bio_msg_st, i64, %struct.noise_args_data_st }
%struct.quic_pkt_hdr_st = type { i32, i32, %struct.quic_conn_id_st, %struct.quic_conn_id_st, [4 x i8], ptr, i64, i64, ptr }
%struct.quic_conn_id_st = type { i8, [20 x i8] }
%struct.ossl_qtx_iovec_st = type { ptr, i64 }
%struct.bio_msg_st = type { ptr, i64, ptr, ptr, i64 }
%struct.noise_args_data_st = type { ptr, ptr, ptr, i32 }

@.str = private unnamed_addr constant [38 x i8] c"../openssl/test/helpers/quictestlib.c\00", align 1
@.str.6 = private unnamed_addr constant [5 x i8] c"cbio\00", align 1
@.str.7 = private unnamed_addr constant [5 x i8] c"sbio\00", align 1
@.str.14 = private unnamed_addr constant [2 x i8] c"1\00", align 1
@.str.46 = private unnamed_addr constant [54 x i8] c"BIO_ctrl(sbio, BIO_CTRL_NOISE_RATE, noise_rate, NULL)\00", align 1
@.str.47 = private unnamed_addr constant [54 x i8] c"BIO_ctrl(cbio, BIO_CTRL_NOISE_RATE, noise_rate, NULL)\00", align 1
@.str.48 = private unnamed_addr constant [67 x i8] c"BIO_ctrl(cbio, BIO_CTRL_NOISE_SEND_BANDWIDTH, (long)ctos_bw, NULL)\00", align 1
@.str.49 = private unnamed_addr constant [67 x i8] c"BIO_ctrl(sbio, BIO_CTRL_NOISE_SEND_BANDWIDTH, (long)stoc_bw, NULL)\00", align 1

; Function Attrs: nounwind uwtable
define dso_local i32 @qtest_fault_set_bw_limit(ptr noundef %0, i64 noundef %1, i64 noundef %2, i32 noundef %3) #0 {
  %5 = alloca i32, align 4
  %6 = alloca ptr, align 8
  %7 = alloca i64, align 8
  %8 = alloca i64, align 8
  %9 = alloca i32, align 4
  %10 = alloca ptr, align 8
  %11 = alloca ptr, align 8
  %12 = alloca i32, align 4
  store ptr %0, ptr %6, align 8, !tbaa !33
  store i64 %1, ptr %7, align 8, !tbaa !62
  store i64 %2, ptr %8, align 8, !tbaa !62
  store i32 %3, ptr %9, align 4, !tbaa !13
  call void @llvm.lifetime.start.p0(i64 8, ptr %10) #8
  %13 = load ptr, ptr %6, align 8, !tbaa !33
  %14 = getelementptr inbounds nuw %struct.qtest_fault, ptr %13, i32 0, i32 19
  %15 = getelementptr inbounds nuw %struct.noise_args_data_st, ptr %14, i32 0, i32 1
  %16 = load ptr, ptr %15, align 8, !tbaa !47
  store ptr %16, ptr %10, align 8, !tbaa !23
  call void @llvm.lifetime.start.p0(i64 8, ptr %11) #8
  %17 = load ptr, ptr %6, align 8, !tbaa !33
  %18 = getelementptr inbounds nuw %struct.qtest_fault, ptr %17, i32 0, i32 19
  %19 = getelementptr inbounds nuw %struct.noise_args_data_st, ptr %18, i32 0, i32 0
  %20 = load ptr, ptr %19, align 8, !tbaa !40
  store ptr %20, ptr %11, align 8, !tbaa !23
  %21 = load ptr, ptr %10, align 8, !tbaa !23
  %22 = call i32 @test_ptr(ptr noundef @.str, i32 noundef 1259, ptr noundef @.str.7, ptr noundef %21)
  %23 = icmp ne i32 %22, 0
  br i1 %23, label %24, label %28

24:                                               ; preds = %4
  %25 = load ptr, ptr %11, align 8, !tbaa !23
  %26 = call i32 @test_ptr(ptr noundef @.str, i32 noundef 1259, ptr noundef @.str.6, ptr noundef %25)
  %27 = icmp ne i32 %26, 0
  br i1 %27, label %29, label %28

28:                                               ; preds = %24, %4
  store i32 0, ptr %5, align 4
  store i32 1, ptr %12, align 4
  br label %64

29:                                               ; preds = %24
  %30 = load ptr, ptr %10, align 8, !tbaa !23
  %31 = load i32, ptr %9, align 4, !tbaa !13
  %32 = sext i32 %31 to i64
  %33 = call i64 @BIO_ctrl(ptr noundef %30, i32 noundef 1002, i64 noundef %32, ptr noundef null)
  %34 = trunc i64 %33 to i32
  %35 = call i32 @test_int_eq(ptr noundef @.str, i32 noundef 1261, ptr noundef @.str.46, ptr noundef @.str.14, i32 noundef %34, i32 noundef 1)
  %36 = icmp ne i32 %35, 0
  br i1 %36, label %38, label %37

37:                                               ; preds = %29
  store i32 0, ptr %5, align 4
  store i32 1, ptr %12, align 4
  br label %64

38:                                               ; preds = %29
  %39 = load ptr, ptr %11, align 8, !tbaa !23
  %40 = load i32, ptr %9, align 4, !tbaa !13
  %41 = sext i32 %40 to i64
  %42 = call i64 @BIO_ctrl(ptr noundef %39, i32 noundef 1002, i64 noundef %41, ptr noundef null)
  %43 = trunc i64 %42 to i32
  %44 = call i32 @test_int_eq(ptr noundef @.str, i32 noundef 1263, ptr noundef @.str.47, ptr noundef @.str.14, i32 noundef %43, i32 noundef 1)
  %45 = icmp ne i32 %44, 0
  br i1 %45, label %47, label %46

46:                                               ; preds = %38
  store i32 0, ptr %5, align 4
  store i32 1, ptr %12, align 4
  br label %64

47:                                               ; preds = %38
  %48 = load ptr, ptr %11, align 8, !tbaa !23
  %49 = load i64, ptr %7, align 8, !tbaa !62
  %50 = call i64 @BIO_ctrl(ptr noundef %48, i32 noundef 1004, i64 noundef %49, ptr noundef null)
  %51 = trunc i64 %50 to i32
  %52 = call i32 @test_int_eq(ptr noundef @.str, i32 noundef 1267, ptr noundef @.str.48, ptr noundef @.str.14, i32 noundef %51, i32 noundef 1)
  %53 = icmp ne i32 %52, 0
  br i1 %53, label %55, label %54

54:                                               ; preds = %47
  store i32 0, ptr %5, align 4
  store i32 1, ptr %12, align 4
  br label %64

55:                                               ; preds = %47
  %56 = load ptr, ptr %10, align 8, !tbaa !23
  %57 = load i64, ptr %8, align 8, !tbaa !62
  %58 = call i64 @BIO_ctrl(ptr noundef %56, i32 noundef 1004, i64 noundef %57, ptr noundef null)
  %59 = trunc i64 %58 to i32
  %60 = call i32 @test_int_eq(ptr noundef @.str, i32 noundef 1270, ptr noundef @.str.49, ptr noundef @.str.14, i32 noundef %59, i32 noundef 1)
  %61 = icmp ne i32 %60, 0
  br i1 %61, label %63, label %62

62:                                               ; preds = %55
  store i32 0, ptr %5, align 4
  store i32 1, ptr %12, align 4
  br label %64

63:                                               ; preds = %55
  store i32 1, ptr %5, align 4
  store i32 1, ptr %12, align 4
  br label %64

64:                                               ; preds = %63, %62, %54, %46, %37, %28
  call void @llvm.lifetime.end.p0(i64 8, ptr %11) #8
  call void @llvm.lifetime.end.p0(i64 8, ptr %10) #8
  %65 = load i32, ptr %5, align 4
  ret i32 %65
}