; Function Attrs: nounwind uwtable
define dso_local range(i32 0, 2) i32 @qtest_fault_set_bw_limit(ptr noundef readonly captures(none) %0, i64 noundef %1, i64 noundef %2, i32 noundef %3) local_unnamed_addr #0 {
  %5 = getelementptr inbounds nuw i8, ptr %0, i64 272
  %6 = getelementptr inbounds nuw i8, ptr %0, i64 280
  %7 = load ptr, ptr %6, align 8, !tbaa !31
  %8 = load ptr, ptr %5, align 8, !tbaa !22
  %9 = tail call i32 @test_ptr(ptr noundef nonnull @.str, i32 noundef 1259, ptr noundef nonnull @.str.7, ptr noundef %7) #10
  %.not = icmp eq i32 %9, 0
  br i1 %.not, label %29, label %10

10:                                               ; preds = %4
  %11 = tail call i32 @test_ptr(ptr noundef nonnull @.str, i32 noundef 1259, ptr noundef nonnull @.str.6, ptr noundef %8) #10
  %.not12 = icmp eq i32 %11, 0
  br i1 %.not12, label %29, label %12

12:                                               ; preds = %10
  %13 = sext i32 %3 to i64
  %14 = tail call i64 @BIO_ctrl(ptr noundef %7, i32 noundef 1002, i64 noundef %13, ptr noundef null) #10
  %15 = trunc i64 %14 to i32
  %16 = tail call i32 @test_int_eq(ptr noundef nonnull @.str, i32 noundef 1261, ptr noundef nonnull @.str.46, ptr noundef nonnull @.str.14, i32 noundef %15, i32 noundef 1) #10
  %.not13 = icmp eq i32 %16, 0
  br i1 %.not13, label %29, label %17

17:                                               ; preds = %12
  %18 = tail call i64 @BIO_ctrl(ptr noundef %8, i32 noundef 1002, i64 noundef %13, ptr noundef null) #10
  %19 = trunc i64 %18 to i32
  %20 = tail call i32 @test_int_eq(ptr noundef nonnull @.str, i32 noundef 1263, ptr noundef nonnull @.str.47, ptr noundef nonnull @.str.14, i32 noundef %19, i32 noundef 1) #10
  %.not14 = icmp eq i32 %20, 0
  br i1 %.not14, label %29, label %21

21:                                               ; preds = %17
  %22 = tail call i64 @BIO_ctrl(ptr noundef %8, i32 noundef 1004, i64 noundef %1, ptr noundef null) #10
  %23 = trunc i64 %22 to i32
  %24 = tail call i32 @test_int_eq(ptr noundef nonnull @.str, i32 noundef 1267, ptr noundef nonnull @.str.48, ptr noundef nonnull @.str.14, i32 noundef %23, i32 noundef 1) #10
  %.not15 = icmp eq i32 %24, 0
  br i1 %.not15, label %29, label %25

25:                                               ; preds = %21
  %26 = tail call i64 @BIO_ctrl(ptr noundef %7, i32 noundef 1004, i64 noundef %2, ptr noundef null) #10
  %27 = trunc i64 %26 to i32
  %28 = tail call i32 @test_int_eq(ptr noundef nonnull @.str, i32 noundef 1270, ptr noundef nonnull @.str.49, ptr noundef nonnull @.str.14, i32 noundef %27, i32 noundef 1) #10
  %.not16 = icmp ne i32 %28, 0
  %. = zext i1 %.not16 to i32
  br label %29

29:                                               ; preds = %25, %21, %17, %12, %4, %10
  %.0 = phi i32 [ 0, %10 ], [ 0, %4 ], [ 0, %12 ], [ 0, %17 ], [ 0, %21 ], [ %., %25 ]
  ret i32 %.0
}